Certificate:
    Data:
        Version: 3 (0x2)
        Serial Number:
            67:cf:d4:19:3a:c3:58:b1:66:2d:a5:5c:5a:a7:e9:b6:65:80:e4:ea
        Signature Algorithm: sha256WithRSAEncryption
        Issuer: C=PH, ST=CAVITE, L=BACOOR, O=ACCSOL, OU=IT, CN=sql.accsol.com
        Validity
            Not Before: Feb  6 02:12:14 2024 GMT
            Not After : Mar  7 02:12:14 2024 GMT
        Subject: C=PH, ST=CAVITE, L=BACOOR, O=ACCSOL, OU=IT, CN=sql.accsol.com
        Subject Public Key Info:
            Public Key Algorithm: rsaEncryption
                Public-Key: (4096 bit)
                Modulus:
                    00:b4:85:bf:a8:ec:64:ee:21:e5:14:75:ed:5e:89:
                    a1:10:b1:e8:64:6c:bd:4e:25:d3:7b:f7:6f:92:8e:
                    b1:34:fe:26:20:d7:f6:b4:6e:03:30:c8:af:db:c1:
                    ed:45:91:fb:12:39:aa:c7:6e:50:60:36:d9:b7:5a:
                    c4:36:2b:19:32:e4:1b:e1:c1:2b:ea:15:b0:af:4f:
                    d8:49:a1:a4:65:4a:bd:f1:4d:26:e3:c6:50:a7:0a:
                    17:6a:cd:3c:74:c3:73:42:95:47:db:b0:22:91:a4:
                    c3:bc:80:f9:c6:82:35:78:40:7d:f0:e8:56:d1:fe:
                    bc:22:d7:b2:54:01:46:d3:fc:40:ff:30:5f:3e:2d:
                    ed:72:8b:3a:77:0e:87:e5:a0:57:75:7d:b0:12:99:
                    50:d9:ba:be:16:f7:7d:f5:37:6d:6c:f1:7b:c2:45:
                    2a:07:7b:28:80:a8:90:35:5b:98:c3:22:b8:7f:1a:
                    6e:f8:a8:33:9e:b5:31:0b:ff:01:2d:19:76:c4:0e:
                    db:e4:3f:fa:31:f5:b0:34:b6:ec:58:84:23:ca:d9:
                    ce:55:de:6f:1e:44:c5:fc:9b:d0:7c:63:70:71:3e:
                    ef:29:ad:0b:72:cd:69:29:53:cf:4b:a5:8e:30:0d:
                    5a:21:6c:72:0e:96:4b:9a:9d:e0:aa:b2:af:12:25:
                    b3:0d:c9:a2:c4:5a:51:f9:dd:1c:3b:6e:f3:c6:a3:
                    04:b6:f1:4a:44:fc:39:67:0e:52:7f:df:2e:03:16:
                    64:30:f5:8b:16:32:33:ea:6b:4f:de:3b:01:99:c9:
                    f8:d6:06:c7:4a:75:f2:ed:bc:c5:0e:73:dc:0d:d1:
                    9e:13:b8:bd:bf:0d:9b:65:ba:52:d8:9b:2e:d4:1d:
                    b5:e1:76:1f:44:65:4e:c8:7f:8a:94:c9:bb:b2:4d:
                    66:df:2d:38:4e:f9:04:06:e2:50:fb:fc:a1:0d:83:
                    3e:e9:85:da:a0:5b:dc:9d:e5:5c:63:63:05:1e:68:
                    40:65:9f:4e:45:22:3f:62:1d:30:06:d6:48:85:97:
                    68:3d:9e:3a:ce:c8:12:60:9a:1f:ab:05:14:38:96:
                    42:3a:c6:16:3a:41:14:01:d9:89:0b:05:fc:59:9d:
                    fc:a1:88:e3:81:51:3f:80:ed:92:e8:6f:f3:96:8b:
                    52:fc:2d:30:0c:5c:3b:32:f6:8c:27:f4:ff:94:45:
                    80:8f:cd:f1:cd:b4:b5:66:6a:b4:6e:dc:3b:b5:02:
                    17:24:ad:a1:b9:0d:40:74:40:82:91:ab:d9:d3:f9:
                    1a:8f:30:cf:e4:00:2f:03:1c:61:e4:ab:07:37:e4:
                    c8:ae:7d:62:77:19:53:c4:cf:d3:83:74:c1:df:84:
                    1d:7a:37
                Exponent: 65537 (0x10001)
        X509v3 extensions:
            X509v3 Subject Key Identifier: 
                92:93:6C:54:30:A8:FF:A8:D7:42:D8:CA:F3:8F:59:DE:CF:27:3A:BB
            X509v3 Authority Key Identifier: 
                92:93:6C:54:30:A8:FF:A8:D7:42:D8:CA:F3:8F:59:DE:CF:27:3A:BB
            X509v3 Basic Constraints: critical
                CA:TRUE
    Signature Algorithm: sha256WithRSAEncryption
    Signature Value:
        84:10:41:13:83:fd:bd:a2:ae:c8:2b:ed:9c:9d:eb:67:c6:b5:
        f9:10:b2:02:1e:b3:f8:6b:2a:e5:55:a6:0e:00:b8:db:c8:0b:
        b3:39:63:27:37:05:b4:37:bf:09:a7:43:0b:c1:ce:41:9a:53:
        bf:eb:d5:e3:79:27:59:f9:4c:47:a2:91:19:d6:d1:b4:99:72:
        1d:7d:bd:14:64:29:77:f5:70:6b:7f:d7:ba:3f:b7:a8:a9:ae:
        86:98:5f:64:c0:4c:f1:96:37:c9:13:9e:31:79:b5:4a:31:e1:
        07:45:86:7d:8b:83:7a:db:3a:6e:7d:fd:9d:3d:86:97:41:43:
        78:19:e7:51:f2:76:d4:a8:d2:ae:33:0f:f9:0c:99:48:8c:db:
        f8:dd:e9:45:d4:32:5b:a1:9a:ae:34:f8:e7:83:47:33:7d:b3:
        d5:dd:ea:6e:be:d0:d2:7f:93:57:2e:b2:22:aa:6d:fe:75:26:
        6d:90:c6:f5:a6:ec:83:12:83:8b:47:84:8e:50:37:c4:0b:66:
        04:9f:f2:05:fa:9f:c5:28:39:9b:c2:5c:22:44:3d:5b:30:da:
        31:03:0e:c5:da:bc:18:92:04:0d:7d:86:8b:43:96:c2:a0:60:
        f1:73:25:54:65:da:01:48:b5:c5:88:11:fe:a4:39:a0:a8:a2:
        7c:cd:91:48:51:c6:69:f9:77:03:95:5b:e9:a6:51:73:74:84:
        fb:17:95:55:e4:bb:0e:cd:c5:c1:39:94:6f:01:2e:69:d8:9d:
        8f:9a:eb:96:bf:c1:e7:7d:b4:9c:35:d1:86:01:57:0c:35:7c:
        65:c5:ad:5a:c6:5d:3d:2a:67:ff:4e:21:db:61:94:42:cb:f7:
        41:72:9e:db:ac:32:e3:a4:c8:7b:a1:34:66:27:3e:4f:5e:af:
        3c:20:46:5a:5b:8c:86:de:a3:23:de:f3:dc:dd:26:5a:2b:7e:
        4c:80:b9:41:e7:e6:67:b4:ee:dd:a1:76:8c:96:59:b9:45:79:
        ab:31:10:0d:3e:85:1c:7e:0a:e9:0f:e6:b5:d3:29:b3:b8:5c:
        a5:d9:9f:11:04:57:62:6e:32:b4:72:ff:e2:3d:c8:6f:b9:9c:
        09:af:22:0d:ae:a8:9a:50:c8:85:76:af:33:69:19:4a:22:fb:
        0e:9c:f5:15:9b:e6:58:b0:bf:1f:f6:36:08:b6:2d:5c:bc:ea:
        74:61:99:4e:ae:16:7a:c0:91:fd:30:00:d9:3d:ef:78:48:8e:
        e3:fb:f1:df:f0:7d:0a:ff:66:f1:f0:07:58:ee:9d:08:e5:49:
        11:e8:a1:5a:37:0f:04:81:b7:e9:d2:95:76:47:d2:2f:da:d8:
        3e:50:eb:8e:df:4a:ad:b0
-----BEGIN CERTIFICATE-----
MIIFrTCCA5WgAwIBAgIUZ8/UGTrDWLFmLaVcWqfptmWA5OowDQYJKoZIhvcNAQEL
BQAwZjELMAkGA1UEBhMCUEgxDzANBgNVBAgMBkNBVklURTEPMA0GA1UEBwwGQkFD
T09SMQ8wDQYDVQQKDAZBQ0NTT0wxCzAJBgNVBAsMAklUMRcwFQYDVQQDDA5zcWwu
YWNjc29sLmNvbTAeFw0yNDAyMDYwMjEyMTRaFw0yNDAzMDcwMjEyMTRaMGYxCzAJ
BgNVBAYTAlBIMQ8wDQYDVQQIDAZDQVZJVEUxDzANBgNVBAcMBkJBQ09PUjEPMA0G
A1UECgwGQUNDU09MMQswCQYDVQQLDAJJVDEXMBUGA1UEAwwOc3FsLmFjY3NvbC5j
b20wggIiMA0GCSqGSIb3DQEBAQUAA4ICDwAwggIKAoICAQC0hb+o7GTuIeUUde1e
iaEQsehkbL1OJdN792+SjrE0/iYg1/a0bgMwyK/bwe1FkfsSOarHblBgNtm3WsQ2
Kxky5BvhwSvqFbCvT9hJoaRlSr3xTSbjxlCnChdqzTx0w3NClUfbsCKRpMO8gPnG
gjV4QH3w6FbR/rwi17JUAUbT/ED/MF8+Le1yizp3DofloFd1fbASmVDZur4W9331
N21s8XvCRSoHeyiAqJA1W5jDIrh/Gm74qDOetTEL/wEtGXbEDtvkP/ox9bA0tuxY
hCPK2c5V3m8eRMX8m9B8Y3BxPu8prQtyzWkpU89LpY4wDVohbHIOlkuaneCqsq8S
JbMNyaLEWlH53Rw7bvPGowS28UpE/DlnDlJ/3y4DFmQw9YsWMjPqa0/eOwGZyfjW
BsdKdfLtvMUOc9wN0Z4TuL2/DZtlulLYmy7UHbXhdh9EZU7If4qUybuyTWbfLThO
+QQG4lD7/KENgz7phdqgW9yd5VxjYwUeaEBln05FIj9iHTAG1kiFl2g9njrOyBJg
mh+rBRQ4lkI6xhY6QRQB2YkLBfxZnfyhiOOBUT+A7ZLob/OWi1L8LTAMXDsy9own
9P+URYCPzfHNtLVmarRu3Du1AhckraG5DUB0QIKRq9nT+RqPMM/kAC8DHGHkqwc3
5MiufWJ3GVPEz9ODdMHfhB16NwIDAQABo1MwUTAdBgNVHQ4EFgQUkpNsVDCo/6jX
QtjK849Z3s8nOrswHwYDVR0jBBgwFoAUkpNsVDCo/6jXQtjK849Z3s8nOrswDwYD
VR0TAQH/BAUwAwEB/zANBgkqhkiG9w0BAQsFAAOCAgEAhBBBE4P9vaKuyCvtnJ3r
Z8a1+RCyAh6z+Gsq5VWmDgC428gLszljJzcFtDe/CadDC8HOQZpTv+vV43knWflM
R6KRGdbRtJlyHX29FGQpd/Vwa3/Xuj+3qKmuhphfZMBM8ZY3yROeMXm1SjHhB0WG
fYuDets6bn39nT2Gl0FDeBnnUfJ21KjSrjMP+QyZSIzb+N3pRdQyW6GarjT454NH
M32z1d3qbr7Q0n+TVy6yIqpt/nUmbZDG9absgxKDi0eEjlA3xAtmBJ/yBfqfxSg5
m8JcIkQ9WzDaMQMOxdq8GJIEDX2Gi0OWwqBg8XMlVGXaAUi1xYgR/qQ5oKiifM2R
SFHGafl3A5Vb6aZRc3SE+xeVVeS7Ds3FwTmUbwEuadidj5rrlr/B5320nDXRhgFX
DDV8ZcWtWsZdPSpn/04h22GUQsv3QXKe26wy46TIe6E0Zic+T16vPCBGWluMht6j
I97z3N0mWit+TIC5QefmZ7Tu3aF2jJZZuUV5qzEQDT6FHH4K6Q/mtdMps7hcpdmf
EQRXYm4ytHL/4j3Ib7mcCa8iDa6omlDIhXavM2kZSiL7Dpz1FZvmWLC/H/Y2CLYt
XLzqdGGZTq4WesCR/TAA2T3veEiO4/vx3/B9Cv9m8fAHWO6dCOVJEeihWjcPBIG3
6dKVdkfSL9rYPlDrjt9KrbA=
-----END CERTIFICATE-----
