Certificate:
    Data:
        Version: 3 (0x2)
        Serial Number:
            57:ff:ce:f6:0d:5b:7f:c2:3a:5e:ab:c0:f6:4e:e0:3a:79:e0:59:f8
        Signature Algorithm: sha256WithRSAEncryption
        Issuer: C=PH, ST=CAVITE, L=BACOOR, O=ACCSOL, OU=IT, CN=www.accsol.com
        Validity
            Not Before: Feb  6 02:12:17 2024 GMT
            Not After : Mar  7 02:12:17 2024 GMT
        Subject: C=PH, ST=CAVITE, L=BACOOR, O=ACCSOL, OU=IT, CN=www.accsol.com
        Subject Public Key Info:
            Public Key Algorithm: rsaEncryption
                Public-Key: (4096 bit)
                Modulus:
                    00:a9:a9:d4:1d:d2:1f:a2:d3:0c:57:2d:36:71:a1:
                    33:ee:95:f7:8d:95:18:59:a9:37:32:53:95:8d:e9:
                    55:78:eb:e8:f4:86:82:34:70:3a:5d:ed:88:ed:8d:
                    d9:ed:27:7e:59:94:87:9c:35:e2:7f:08:76:75:c3:
                    8c:cc:3f:92:4f:50:c1:71:91:24:83:fe:d3:e9:5f:
                    a6:c4:f2:e5:57:d6:f9:4b:c9:c1:46:52:88:35:7a:
                    82:cf:a7:6d:cb:0a:24:55:81:a7:68:a8:ac:b9:e8:
                    5f:81:cb:a6:a8:76:a4:f5:33:56:d6:be:96:ad:d4:
                    e1:24:fb:8a:6e:cb:9a:84:74:51:c0:33:36:31:f0:
                    0c:78:05:5f:f1:28:85:74:20:af:87:1a:19:16:12:
                    27:27:6c:10:21:1d:ef:46:c0:00:8a:ee:04:d5:92:
                    35:ef:35:85:77:f3:ac:fb:39:d7:c4:6e:3c:c5:ad:
                    60:b5:70:f5:99:fe:69:52:e4:d2:7d:66:0e:19:37:
                    c8:58:b4:55:8f:1b:b6:d7:4f:61:3e:96:69:74:de:
                    38:05:b5:ed:39:15:00:47:5d:3c:ce:a0:3e:71:19:
                    e0:75:e0:99:26:63:18:ba:7c:2e:08:f5:dd:7d:5b:
                    3e:56:cd:a4:8c:7c:65:db:0c:6e:b2:e4:bd:e0:aa:
                    34:d8:2e:12:1d:fd:d6:a5:58:aa:8b:af:00:b5:44:
                    3b:a2:bc:47:d7:c9:fc:a9:43:11:11:69:d2:eb:26:
                    f9:17:26:38:0d:f8:31:ff:05:47:85:b1:31:1d:78:
                    d9:04:37:24:0c:9e:97:f8:17:7c:60:a4:3c:21:f1:
                    9b:01:c3:74:ff:a2:89:ea:4f:7f:e6:db:77:c2:52:
                    dc:60:43:f7:b3:a4:86:14:aa:3f:58:ec:c4:4e:25:
                    7d:d8:3a:cd:b4:d9:89:de:5d:8c:03:62:c3:68:97:
                    c9:f4:ce:c1:e4:ff:31:6e:79:35:38:b0:27:4f:f7:
                    95:50:92:7a:f7:6e:5b:89:23:a1:ef:63:b3:bf:67:
                    7b:87:0b:d8:0e:b1:6a:5f:c4:6f:15:5b:2a:5b:9d:
                    4f:d0:ae:cd:2d:79:51:5f:d4:ed:54:54:57:e6:e3:
                    24:b4:f7:6c:34:84:3e:3f:e9:34:0e:92:36:be:ea:
                    0f:5f:7e:1f:8b:0a:1f:55:0c:89:d9:6c:d3:b8:a6:
                    0a:aa:59:b7:a1:55:df:81:08:df:4e:16:21:38:30:
                    fc:95:b5:c5:07:39:f8:c5:69:af:b7:69:95:6d:dd:
                    23:2b:16:ee:85:e8:16:00:17:15:92:39:3e:1a:22:
                    54:da:00:0b:94:bf:b8:ba:e9:28:af:12:78:ab:22:
                    d5:34:ef
                Exponent: 65537 (0x10001)
        X509v3 extensions:
            X509v3 Subject Key Identifier: 
                8C:60:90:28:83:2B:0C:AD:CB:1A:84:0E:AC:D7:3E:29:FB:02:4F:04
            X509v3 Authority Key Identifier: 
                8C:60:90:28:83:2B:0C:AD:CB:1A:84:0E:AC:D7:3E:29:FB:02:4F:04
            X509v3 Basic Constraints: critical
                CA:TRUE
    Signature Algorithm: sha256WithRSAEncryption
    Signature Value:
        53:67:28:19:be:c5:33:cf:de:0b:fa:44:38:1a:e9:10:58:b3:
        32:97:41:bb:58:06:c0:b8:7d:9c:5c:20:bf:e2:e7:7d:59:57:
        ff:7e:aa:dc:8b:74:a0:be:70:68:4d:42:8b:7f:54:48:f2:7a:
        c0:ad:d4:b2:8a:41:83:f7:a4:db:0c:45:6e:37:f6:6e:26:90:
        0b:cf:76:05:5a:63:c5:ad:55:3f:06:71:52:8f:32:bc:fe:cf:
        a2:c5:68:fc:0b:b2:c1:f2:56:f1:ee:30:73:57:a0:33:f6:c1:
        d3:20:d1:1e:ec:27:ec:bd:f5:19:42:3a:13:54:c3:ec:ca:cd:
        b0:b1:2b:e3:5d:40:5d:72:59:7e:7e:c3:ee:2f:d1:1b:5c:49:
        e4:30:9d:d7:b9:ad:a1:39:f2:bd:25:9e:11:72:59:58:ae:d3:
        8f:8d:3e:18:ce:94:6f:91:84:78:39:fb:1e:e7:28:90:a3:08:
        0c:0f:8c:b0:59:57:1c:52:e5:a4:30:3a:35:42:26:5b:46:80:
        d1:3e:64:8d:22:df:bb:5a:03:f2:53:94:e2:2f:5c:64:14:7f:
        2d:53:46:bc:31:8b:74:29:0f:be:b5:f0:cc:42:08:dd:c1:e8:
        1d:fe:64:11:d6:2d:7e:6e:13:4a:e1:d9:c5:70:3e:47:fc:8e:
        e1:49:ac:fd:fe:68:c7:9a:38:b9:a0:be:67:22:8a:e6:34:ad:
        0d:28:21:95:58:cb:87:d8:a1:8d:b9:f8:33:31:b2:d4:32:79:
        78:c8:a2:45:47:0c:bb:b7:5c:bf:43:07:a8:a5:9f:7d:03:a9:
        a7:90:e8:7e:22:1d:aa:e8:17:7b:4c:57:50:97:e9:61:19:59:
        45:8c:52:e4:12:4a:ee:b5:32:09:89:d8:cd:bc:23:23:2a:f0:
        75:66:be:21:c8:22:4f:ff:41:53:b5:2d:21:68:4e:99:9e:e6:
        0d:ce:4e:cb:4c:e9:f2:ca:d3:af:20:0f:1f:a8:19:b4:af:4f:
        98:eb:d7:e2:5f:ac:73:3b:de:bb:82:12:16:ca:e3:95:3c:4f:
        0f:48:16:b3:52:4a:67:cb:f0:b1:5e:b4:ba:4c:81:03:55:93:
        91:db:55:f7:ae:1e:5f:dd:1f:09:d2:21:a5:93:22:e0:8d:4f:
        f8:3e:bd:b8:e6:30:7e:f3:c5:10:1a:e1:23:a3:9e:ca:1e:fe:
        48:9a:0a:ac:20:b7:08:13:74:e6:33:13:18:6b:4f:ad:fe:04:
        1e:02:8e:dd:28:5d:bd:b6:a2:53:bd:96:5f:66:b1:ca:3f:bb:
        d3:35:59:50:6f:36:a3:7f:29:f1:82:89:44:41:7a:33:fe:6f:
        7a:88:42:37:df:34:f6:79
-----BEGIN CERTIFICATE-----
MIIFrTCCA5WgAwIBAgIUV//O9g1bf8I6XqvA9k7gOnngWfgwDQYJKoZIhvcNAQEL
BQAwZjELMAkGA1UEBhMCUEgxDzANBgNVBAgMBkNBVklURTEPMA0GA1UEBwwGQkFD
T09SMQ8wDQYDVQQKDAZBQ0NTT0wxCzAJBgNVBAsMAklUMRcwFQYDVQQDDA53d3cu
YWNjc29sLmNvbTAeFw0yNDAyMDYwMjEyMTdaFw0yNDAzMDcwMjEyMTdaMGYxCzAJ
BgNVBAYTAlBIMQ8wDQYDVQQIDAZDQVZJVEUxDzANBgNVBAcMBkJBQ09PUjEPMA0G
A1UECgwGQUNDU09MMQswCQYDVQQLDAJJVDEXMBUGA1UEAwwOd3d3LmFjY3NvbC5j
b20wggIiMA0GCSqGSIb3DQEBAQUAA4ICDwAwggIKAoICAQCpqdQd0h+i0wxXLTZx
oTPulfeNlRhZqTcyU5WN6VV46+j0hoI0cDpd7YjtjdntJ35ZlIecNeJ/CHZ1w4zM
P5JPUMFxkSSD/tPpX6bE8uVX1vlLycFGUog1eoLPp23LCiRVgadoqKy56F+By6ao
dqT1M1bWvpat1OEk+4puy5qEdFHAMzYx8Ax4BV/xKIV0IK+HGhkWEicnbBAhHe9G
wACK7gTVkjXvNYV386z7OdfEbjzFrWC1cPWZ/mlS5NJ9Zg4ZN8hYtFWPG7bXT2E+
lml03jgFte05FQBHXTzOoD5xGeB14JkmYxi6fC4I9d19Wz5WzaSMfGXbDG6y5L3g
qjTYLhId/dalWKqLrwC1RDuivEfXyfypQxERadLrJvkXJjgN+DH/BUeFsTEdeNkE
NyQMnpf4F3xgpDwh8ZsBw3T/oonqT3/m23fCUtxgQ/ezpIYUqj9Y7MROJX3YOs20
2YneXYwDYsNol8n0zsHk/zFueTU4sCdP95VQknr3bluJI6HvY7O/Z3uHC9gOsWpf
xG8VWypbnU/Qrs0teVFf1O1UVFfm4yS092w0hD4/6TQOkja+6g9ffh+LCh9VDInZ
bNO4pgqqWbehVd+BCN9OFiE4MPyVtcUHOfjFaa+3aZVt3SMrFu6F6BYAFxWSOT4a
IlTaAAuUv7i66SivEnirItU07wIDAQABo1MwUTAdBgNVHQ4EFgQUjGCQKIMrDK3L
GoQOrNc+KfsCTwQwHwYDVR0jBBgwFoAUjGCQKIMrDK3LGoQOrNc+KfsCTwQwDwYD
VR0TAQH/BAUwAwEB/zANBgkqhkiG9w0BAQsFAAOCAgEAU2coGb7FM8/eC/pEOBrp
EFizMpdBu1gGwLh9nFwgv+LnfVlX/36q3It0oL5waE1Ci39USPJ6wK3UsopBg/ek
2wxFbjf2biaQC892BVpjxa1VPwZxUo8yvP7PosVo/AuywfJW8e4wc1egM/bB0yDR
Huwn7L31GUI6E1TD7MrNsLEr411AXXJZfn7D7i/RG1xJ5DCd17mtoTnyvSWeEXJZ
WK7Tj40+GM6Ub5GEeDn7HucokKMIDA+MsFlXHFLlpDA6NUImW0aA0T5kjSLfu1oD
8lOU4i9cZBR/LVNGvDGLdCkPvrXwzEII3cHoHf5kEdYtfm4TSuHZxXA+R/yO4Ums
/f5ox5o4uaC+ZyKK5jStDSghlVjLh9ihjbn4MzGy1DJ5eMiiRUcMu7dcv0MHqKWf
fQOpp5DofiIdqugXe0xXUJfpYRlZRYxS5BJK7rUyCYnYzbwjIyrwdWa+IcgiT/9B
U7UtIWhOmZ7mDc5Oy0zp8srTryAPH6gZtK9PmOvX4l+sczveu4ISFsrjlTxPD0gW
s1JKZ8vwsV60ukyBA1WTkdtV964eX90fCdIhpZMi4I1P+D69uOYwfvPFEBrhI6Oe
yh7+SJoKrCC3CBN05jMTGGtPrf4EHgKO3ShdvbaiU72WX2axyj+70zVZUG82o38p
8YKJREF6M/5veohCN9809nk=
-----END CERTIFICATE-----
